target datalayout = "e-m:e-p270:32:32-p271:32:32-p272:64:64-i64:64-i128:128-f80:128-n8:16:32:64-S128"
target triple = "x86_64-pc-linux-gnu"

@.str.12 = private unnamed_addr constant [32 x i8] c"../openssl/test/property_test.c\00", align 1
@.str.70 = private unnamed_addr constant [36 x i8] c"store = ossl_method_store_new(NULL)\00", align 1
@.str.71 = private unnamed_addr constant [5 x i8] c"wood\00", align 1
@.str.72 = private unnamed_addr constant [42 x i8] c"p = ossl_parse_query(NULL, \22wood=oak\22, 0)\00", align 1
@.str.73 = private unnamed_addr constant [9 x i8] c"wood=oak\00", align 1
@.str.74 = private unnamed_addr constant [42 x i8] c"q = ossl_parse_query(NULL, \22wood=oak\22, 1)\00", align 1
@.str.75 = private unnamed_addr constant [42 x i8] c"o = ossl_parse_query(NULL, \22wood=oak\22, 0)\00", align 1
@.str.76 = private unnamed_addr constant [32 x i8] c"ossl_property_match_count(q, p)\00", align 1
@.str.77 = private unnamed_addr constant [3 x i8] c"-1\00", align 1
@.str.78 = private unnamed_addr constant [32 x i8] c"ossl_property_match_count(q, o)\00", align 1
@.str.79 = private unnamed_addr constant [2 x i8] c"1\00", align 1

; Function Attrs: nounwind uwtable
define internal i32 @test_property_query_value_create() #0 {
  %1 = alloca ptr, align 8
  %2 = alloca ptr, align 8
  %3 = alloca ptr, align 8
  %4 = alloca ptr, align 8
  %5 = alloca i32, align 4
  call void @llvm.lifetime.start.p0(i64 8, ptr %1) #6
  call void @llvm.lifetime.start.p0(i64 8, ptr %2) #6
  store ptr null, ptr %2, align 8, !tbaa !13
  call void @llvm.lifetime.start.p0(i64 8, ptr %3) #6
  store ptr null, ptr %3, align 8, !tbaa !13
  call void @llvm.lifetime.start.p0(i64 8, ptr %4) #6
  store ptr null, ptr %4, align 8, !tbaa !13
  call void @llvm.lifetime.start.p0(i64 4, ptr %5) #6
  store i32 0, ptr %5, align 4, !tbaa !9
  %6 = call ptr @ossl_method_store_new(ptr noundef null)
  store ptr %6, ptr %1, align 8, !tbaa !4
  %7 = call i32 @test_ptr(ptr noundef @.str.12, i32 noundef 176, ptr noundef @.str.70, ptr noundef %6)
  %8 = icmp ne i32 %7, 0
  br i1 %8, label %9, label %37

9:                                                ; preds = %0
  %10 = call i32 (ptr, ...) @add_property_names(ptr noundef @.str.71, ptr noundef null)
  %11 = icmp ne i32 %10, 0
  br i1 %11, label %12, label %37

12:                                               ; preds = %9
  %13 = call ptr @ossl_parse_query(ptr noundef null, ptr noundef @.str.73, i32 noundef 0)
  store ptr %13, ptr %2, align 8, !tbaa !13
  %14 = call i32 @test_ptr(ptr noundef @.str.12, i32 noundef 178, ptr noundef @.str.72, ptr noundef %13)
  %15 = icmp ne i32 %14, 0
  br i1 %15, label %16, label %37

16:                                               ; preds = %12
  %17 = call ptr @ossl_parse_query(ptr noundef null, ptr noundef @.str.73, i32 noundef 1)
  store ptr %17, ptr %3, align 8, !tbaa !13
  %18 = call i32 @test_ptr(ptr noundef @.str.12, i32 noundef 179, ptr noundef @.str.74, ptr noundef %17)
  %19 = icmp ne i32 %18, 0
  br i1 %19, label %20, label %37

20:                                               ; preds = %16
  %21 = call ptr @ossl_parse_query(ptr noundef null, ptr noundef @.str.73, i32 noundef 0)
  store ptr %21, ptr %4, align 8, !tbaa !13
  %22 = call i32 @test_ptr(ptr noundef @.str.12, i32 noundef 180, ptr noundef @.str.75, ptr noundef %21)
  %23 = icmp ne i32 %22, 0
  br i1 %23, label %24, label %37

24:                                               ; preds = %20
  %25 = load ptr, ptr %3, align 8, !tbaa !13
  %26 = load ptr, ptr %2, align 8, !tbaa !13
  %27 = call i32 @ossl_property_match_count(ptr noundef %25, ptr noundef %26)
  %28 = call i32 @test_int_eq(ptr noundef @.str.12, i32 noundef 181, ptr noundef @.str.76, ptr noundef @.str.77, i32 noundef %27, i32 noundef -1)
  %29 = icmp ne i32 %28, 0
  br i1 %29, label %30, label %37

30:                                               ; preds = %24
  %31 = load ptr, ptr %3, align 8, !tbaa !13
  %32 = load ptr, ptr %4, align 8, !tbaa !13
  %33 = call i32 @ossl_property_match_count(ptr noundef %31, ptr noundef %32)
  %34 = call i32 @test_int_eq(ptr noundef @.str.12, i32 noundef 182, ptr noundef @.str.78, ptr noundef @.str.79, i32 noundef %33, i32 noundef 1)
  %35 = icmp ne i32 %34, 0
  br i1 %35, label %36, label %37

36:                                               ; preds = %30
  store i32 1, ptr %5, align 4, !tbaa !9
  br label %37

37:                                               ; preds = %36, %30, %24, %20, %16, %12, %9, %0
  %38 = load ptr, ptr %4, align 8, !tbaa !13
  call void @ossl_property_free(ptr noundef %38)
  %39 = load ptr, ptr %2, align 8, !tbaa !13
  call void @ossl_property_free(ptr noundef %39)
  %40 = load ptr, ptr %3, align 8, !tbaa !13
  call void @ossl_property_free(ptr noundef %40)
  %41 = load ptr, ptr %1, align 8, !tbaa !4
  call void @ossl_method_store_free(ptr noundef %41)
  %42 = load i32, ptr %5, align 4, !tbaa !9
  call void @llvm.lifetime.end.p0(i64 4, ptr %5) #6
  call void @llvm.lifetime.end.p0(i64 8, ptr %4) #6
  call void @llvm.lifetime.end.p0(i64 8, ptr %3) #6
  call void @llvm.lifetime.end.p0(i64 8, ptr %2) #6
  call void @llvm.lifetime.end.p0(i64 8, ptr %1) #6
  ret i32 %42
}