; Function Attrs: nounwind uwtable
define internal range(i32 0, 2) i32 @test_property_query_value_create() #0 {
  %1 = tail call ptr @ossl_method_store_new(ptr noundef null) #6
  %2 = tail call i32 @test_ptr(ptr noundef nonnull @.str.12, i32 noundef 176, ptr noundef nonnull @.str.70, ptr noundef %1) #6
  %.not = icmp eq i32 %2, 0
  br i1 %.not, label %20, label %3

3:                                                ; preds = %0
  %4 = tail call i32 (ptr, ...) @add_property_names(ptr noundef nonnull @.str.71, ptr noundef null)
  %.not11 = icmp eq i32 %4, 0
  br i1 %.not11, label %20, label %5

5:                                                ; preds = %3
  %6 = tail call ptr @ossl_parse_query(ptr noundef null, ptr noundef nonnull @.str.73, i32 noundef 0) #6
  %7 = tail call i32 @test_ptr(ptr noundef nonnull @.str.12, i32 noundef 178, ptr noundef nonnull @.str.72, ptr noundef %6) #6
  %.not12 = icmp eq i32 %7, 0
  br i1 %.not12, label %20, label %8

8:                                                ; preds = %5
  %9 = tail call ptr @ossl_parse_query(ptr noundef null, ptr noundef nonnull @.str.73, i32 noundef 1) #6
  %10 = tail call i32 @test_ptr(ptr noundef nonnull @.str.12, i32 noundef 179, ptr noundef nonnull @.str.74, ptr noundef %9) #6
  %.not13 = icmp eq i32 %10, 0
  br i1 %.not13, label %20, label %11

11:                                               ; preds = %8
  %12 = tail call ptr @ossl_parse_query(ptr noundef null, ptr noundef nonnull @.str.73, i32 noundef 0) #6
  %13 = tail call i32 @test_ptr(ptr noundef nonnull @.str.12, i32 noundef 180, ptr noundef nonnull @.str.75, ptr noundef %12) #6
  %.not14 = icmp eq i32 %13, 0
  br i1 %.not14, label %20, label %14

14:                                               ; preds = %11
  %15 = tail call i32 @ossl_property_match_count(ptr noundef %9, ptr noundef %6) #6
  %16 = tail call i32 @test_int_eq(ptr noundef nonnull @.str.12, i32 noundef 181, ptr noundef nonnull @.str.76, ptr noundef nonnull @.str.77, i32 noundef %15, i32 noundef -1) #6
  %.not15 = icmp eq i32 %16, 0
  br i1 %.not15, label %20, label %17

17:                                               ; preds = %14
  %18 = tail call i32 @ossl_property_match_count(ptr noundef %9, ptr noundef %12) #6
  %19 = tail call i32 @test_int_eq(ptr noundef nonnull @.str.12, i32 noundef 182, ptr noundef nonnull @.str.78, ptr noundef nonnull @.str.79, i32 noundef %18, i32 noundef 1) #6
  %.not16 = icmp ne i32 %19, 0
  %spec.select = zext i1 %.not16 to i32
  br label %20

20:                                               ; preds = %17, %14, %11, %8, %5, %3, %0
  %.010 = phi ptr [ %6, %14 ], [ %6, %11 ], [ %6, %8 ], [ %6, %5 ], [ null, %3 ], [ null, %0 ], [ %6, %17 ]
  %.09 = phi ptr [ %9, %14 ], [ %9, %11 ], [ %9, %8 ], [ null, %5 ], [ null, %3 ], [ null, %0 ], [ %9, %17 ]
  %.08 = phi ptr [ %12, %14 ], [ %12, %11 ], [ null, %8 ], [ null, %5 ], [ null, %3 ], [ null, %0 ], [ %12, %17 ]
  %.0 = phi i32 [ 0, %14 ], [ 0, %11 ], [ 0, %8 ], [ 0, %5 ], [ 0, %3 ], [ 0, %0 ], [ %spec.select, %17 ]
  tail call void @ossl_property_free(ptr noundef %.08) #6
  tail call void @ossl_property_free(ptr noundef %.010) #6
  tail call void @ossl_property_free(ptr noundef %.09) #6
  tail call void @ossl_method_store_free(ptr noundef %1) #6
  ret i32 %.0
}